; ModuleID = '45/2498.c'
source_filename = "45/2498.c"
target datalayout = "e-m:e-p270:32:32-p271:32:32-p272:64:64-i64:64-f80:128-n8:16:32:64-S128"
target triple = "x86_64-pc-linux-gnu"

@.str = private unnamed_addr constant [5 x i8] c"%s%s\00", align 1
@.str.1 = private unnamed_addr constant [3 x i8] c"%d\00", align 1

; Function Attrs: noinline nounwind uwtable
define dso_local i32 @main() #0 {
  %1 = alloca i32, align 4
  %2 = alloca [100 x i8], align 16
  %3 = alloca [1003 x i8], align 16
  %4 = alloca [100 x i8], align 16
  %5 = alloca i32, align 4
  %6 = alloca i32, align 4
  %7 = alloca i32, align 4
  %8 = alloca i32, align 4
  store i32 0, i32* %1, align 4
  %9 = getelementptr inbounds [100 x i8], [100 x i8]* %2, i64 0, i64 0
  %10 = getelementptr inbounds [1003 x i8], [1003 x i8]* %3, i64 0, i64 0
  %11 = call i32 (i8*, ...) @__isoc99_scanf(i8* getelementptr inbounds ([5 x i8], [5 x i8]* @.str, i64 0, i64 0), i8* %9, i8* %10)
  store i32 0, i32* %7, align 4
  store i32 -1, i32* %8, align 4
  store i32 0, i32* %5, align 4
  br label %12

12:                                               ; preds = %22, %0
  %13 = load i32, i32* %5, align 4
  %14 = sext i32 %13 to i64
  %15 = getelementptr inbounds [100 x i8], [100 x i8]* %2, i64 0, i64 %14
  %16 = load i8, i8* %15, align 1
  %17 = sext i8 %16 to i32
  %18 = icmp ne i32 %17, 0
  br i1 %18, label %19, label %25

19:                                               ; preds = %12
  %20 = load i32, i32* %7, align 4
  %21 = add nsw i32 %20, 1
  store i32 %21, i32* %7, align 4
  br label %22

22:                                               ; preds = %19
  %23 = load i32, i32* %5, align 4
  %24 = add nsw i32 %23, 1
  store i32 %24, i32* %5, align 4
  br label %12

25:                                               ; preds = %12
  store i32 0, i32* %5, align 4
  br label %26

26:                                               ; preds = %61, %25
  %27 = load i32, i32* %5, align 4
  %28 = sext i32 %27 to i64
  %29 = getelementptr inbounds [100 x i8], [100 x i8]* %2, i64 0, i64 %28
  %30 = load i8, i8* %29, align 1
  %31 = sext i8 %30 to i32
  %32 = icmp ne i32 %31, 0
  br i1 %32, label %33, label %64

33:                                               ; preds = %26
  store i32 0, i32* %6, align 4
  br label %34

34:                                               ; preds = %55, %33
  %35 = load i32, i32* %6, align 4
  %36 = sext i32 %35 to i64
  %37 = getelementptr inbounds [1003 x i8], [1003 x i8]* %3, i64 0, i64 %36
  %38 = load i8, i8* %37, align 1
  %39 = sext i8 %38 to i32
  %40 = icmp ne i32 %39, 10
  br i1 %40, label %41, label %58

41:                                               ; preds = %34
  %42 = load i32, i32* %5, align 4
  %43 = sext i32 %42 to i64
  %44 = getelementptr inbounds [100 x i8], [100 x i8]* %2, i64 0, i64 %43
  %45 = load i8, i8* %44, align 1
  %46 = sext i8 %45 to i32
  %47 = load i32, i32* %6, align 4
  %48 = sext i32 %47 to i64
  %49 = getelementptr inbounds [1003 x i8], [1003 x i8]* %3, i64 0, i64 %48
  %50 = load i8, i8* %49, align 1
  %51 = sext i8 %50 to i32
  %52 = icmp eq i32 %46, %51
  br i1 %52, label %53, label %54

53:                                               ; preds = %41
  br label %58

54:                                               ; preds = %41
  br label %55

55:                                               ; preds = %54
  %56 = load i32, i32* %6, align 4
  %57 = add nsw i32 %56, 1
  store i32 %57, i32* %6, align 4
  br label %34

58:                                               ; preds = %53, %34
  %59 = load i32, i32* %6, align 4
  %60 = call i32 (i8*, ...) @printf(i8* getelementptr inbounds ([3 x i8], [3 x i8]* @.str.1, i64 0, i64 0), i32 %59)
  br label %64

61:                                               ; No predecessors!
  %62 = load i32, i32* %5, align 4
  %63 = add nsw i32 %62, 1
  store i32 %63, i32* %5, align 4
  br label %26

64:                                               ; preds = %58, %26
  %65 = load i32, i32* %6, align 4
  store i32 %65, i32* %5, align 4
  br label %66

66:                                               ; preds = %87, %64
  %67 = load i32, i32* %5, align 4
  %68 = load i32, i32* %7, align 4
  %69 = load i32, i32* %6, align 4
  %70 = add nsw i32 %68, %69
  %71 = icmp sle i32 %67, %70
  br i1 %71, label %72, label %90

72:                                               ; preds = %66
  %73 = load i32, i32* %8, align 4
  %74 = add nsw i32 %73, 1
  store i32 %74, i32* %8, align 4
  %75 = load i32, i32* %8, align 4
  %76 = sext i32 %75 to i64
  %77 = getelementptr inbounds [100 x i8], [100 x i8]* %4, i64 0, i64 %76
  %78 = load i8, i8* %77, align 1
  %79 = sext i8 %78 to i32
  %80 = load i32, i32* %5, align 4
  %81 = sext i32 %80 to i64
  %82 = getelementptr inbounds [1003 x i8], [1003 x i8]* %3, i64 0, i64 %81
  %83 = load i8, i8* %82, align 1
  %84 = sext i8 %83 to i32
  %85 = icmp eq i32 %79, %84
  %86 = zext i1 %85 to i32
  br label %87

87:                                               ; preds = %72
  %88 = load i32, i32* %5, align 4
  %89 = add nsw i32 %88, 1
  store i32 %89, i32* %5, align 4
  br label %66

90:                                               ; preds = %66
  %91 = getelementptr inbounds [100 x i8], [100 x i8]* %2, i64 0, i64 0
  %92 = getelementptr inbounds [100 x i8], [100 x i8]* %4, i64 0, i64 0
  %93 = call i32 @strcmp(i8* %91, i8* %92) #3
  %94 = icmp eq i32 %93, 0
  br i1 %94, label %95, label %98

95:                                               ; preds = %90
  %96 = load i32, i32* %6, align 4
  %97 = call i32 (i8*, ...) @printf(i8* getelementptr inbounds ([3 x i8], [3 x i8]* @.str.1, i64 0, i64 0), i32 %96)
  br label %98

98:                                               ; preds = %95, %90
  ret i32 0
}

declare dso_local i32 @__isoc99_scanf(i8*, ...) #1

declare dso_local i32 @printf(i8*, ...) #1

; Function Attrs: nounwind readonly
declare dso_local i32 @strcmp(i8*, i8*) #2


!llvm.module.flags = !{!0}
!llvm.ident = !{!1}

!0 = !{i32 1, !"wchar_size", i32 4}
!1 = !{!"clang version 10.0.0-4ubuntu1 "}
